target datalayout = "e-m:e-p270:32:32-p271:32:32-p272:64:64-i64:64-i128:128-f80:128-n8:16:32:64-S128"
target triple = "x86_64-pc-linux-gnu"

@.str = private unnamed_addr constant [32 x i8] c"../openssl/crypto/rsa/rsa_pk1.c\00", align 1
@__func__.ossl_rsa_padding_check_PKCS1_type_2_TLS = private unnamed_addr constant [40 x i8] c"ossl_rsa_padding_check_PKCS1_type_2_TLS\00", align 1

; Function Attrs: inlinehint nounwind uwtable
define internal i32 @value_barrier(i32 noundef %0) #5 {
  %2 = alloca i32, align 4
  %3 = alloca i32, align 4
  store i32 %0, ptr %2, align 4, !tbaa !8
  call void @llvm.lifetime.start.p0(i64 4, ptr %3) #6
  %4 = load i32, ptr %2, align 4, !tbaa !8
  %5 = call i32 asm "", "=r,0,~{dirflag},~{fpsr},~{flags}"(i32 %4) #7, !srcloc !36
  store i32 %5, ptr %3, align 4, !tbaa !8
  %6 = load i32, ptr %3, align 4, !tbaa !8
  call void @llvm.lifetime.end.p0(i64 4, ptr %3) #6
  ret i32 %6
}

; Function Attrs: inlinehint nounwind uwtable
define internal i32 @constant_time_select(i32 noundef %0, i32 noundef %1, i32 noundef %2) #5 {
  %4 = alloca i32, align 4
  %5 = alloca i32, align 4
  %6 = alloca i32, align 4
  store i32 %0, ptr %4, align 4, !tbaa !8
  store i32 %1, ptr %5, align 4, !tbaa !8
  store i32 %2, ptr %6, align 4, !tbaa !8
  %7 = load i32, ptr %4, align 4, !tbaa !8
  %8 = call i32 @value_barrier(i32 noundef %7)
  %9 = load i32, ptr %5, align 4, !tbaa !8
  %10 = and i32 %8, %9
  %11 = load i32, ptr %4, align 4, !tbaa !8
  %12 = xor i32 %11, -1
  %13 = call i32 @value_barrier(i32 noundef %12)
  %14 = load i32, ptr %6, align 4, !tbaa !8
  %15 = and i32 %13, %14
  %16 = or i32 %10, %15
  ret i32 %16
}

; Function Attrs: inlinehint nounwind uwtable
define internal i32 @constant_time_msb(i32 noundef %0) #5 {
  %2 = alloca i32, align 4
  store i32 %0, ptr %2, align 4, !tbaa !8
  %3 = load i32, ptr %2, align 4, !tbaa !8
  %4 = lshr i32 %3, 31
  %5 = sub i32 0, %4
  ret i32 %5
}

; Function Attrs: inlinehint nounwind uwtable
define internal zeroext i8 @constant_time_select_8(i8 noundef zeroext %0, i8 noundef zeroext %1, i8 noundef zeroext %2) #5 {
  %4 = alloca i8, align 1
  %5 = alloca i8, align 1
  %6 = alloca i8, align 1
  store i8 %0, ptr %4, align 1, !tbaa !10
  store i8 %1, ptr %5, align 1, !tbaa !10
  store i8 %2, ptr %6, align 1, !tbaa !10
  %7 = load i8, ptr %4, align 1, !tbaa !10
  %8 = zext i8 %7 to i32
  %9 = load i8, ptr %5, align 1, !tbaa !10
  %10 = zext i8 %9 to i32
  %11 = load i8, ptr %6, align 1, !tbaa !10
  %12 = zext i8 %11 to i32
  %13 = call i32 @constant_time_select(i32 noundef %8, i32 noundef %10, i32 noundef %12)
  %14 = trunc i32 %13 to i8
  ret i8 %14
}

; Function Attrs: inlinehint nounwind uwtable
define internal zeroext i8 @constant_time_is_zero_8(i32 noundef %0) #5 {
  %2 = alloca i32, align 4
  store i32 %0, ptr %2, align 4, !tbaa !8
  %3 = load i32, ptr %2, align 4, !tbaa !8
  %4 = call i32 @constant_time_is_zero(i32 noundef %3)
  %5 = trunc i32 %4 to i8
  ret i8 %5
}

; Function Attrs: inlinehint nounwind uwtable
define internal i32 @constant_time_eq(i32 noundef %0, i32 noundef %1) #5 {
  %3 = alloca i32, align 4
  %4 = alloca i32, align 4
  store i32 %0, ptr %3, align 4, !tbaa !8
  store i32 %1, ptr %4, align 4, !tbaa !8
  %5 = load i32, ptr %3, align 4, !tbaa !8
  %6 = load i32, ptr %4, align 4, !tbaa !8
  %7 = xor i32 %5, %6
  %8 = call i32 @constant_time_is_zero(i32 noundef %7)
  ret i32 %8
}

; Function Attrs: inlinehint nounwind uwtable
define internal i32 @constant_time_is_zero(i32 noundef %0) #5 {
  %2 = alloca i32, align 4
  store i32 %0, ptr %2, align 4, !tbaa !8
  %3 = load i32, ptr %2, align 4, !tbaa !8
  %4 = xor i32 %3, -1
  %5 = load i32, ptr %2, align 4, !tbaa !8
  %6 = sub i32 %5, 1
  %7 = and i32 %4, %6
  %8 = call i32 @constant_time_msb(i32 noundef %7)
  ret i32 %8
}

; Function Attrs: nounwind uwtable
define i32 @ossl_rsa_padding_check_PKCS1_type_2_TLS(ptr noundef %0, ptr noundef %1, i64 noundef %2, ptr noundef %3, i64 noundef %4, i32 noundef %5, i32 noundef %6) #0 {
  %8 = alloca i32, align 4
  %9 = alloca ptr, align 8
  %10 = alloca ptr, align 8
  %11 = alloca i64, align 8
  %12 = alloca ptr, align 8
  %13 = alloca i64, align 8
  %14 = alloca i32, align 4
  %15 = alloca i32, align 4
  %16 = alloca i32, align 4
  %17 = alloca i32, align 4
  %18 = alloca i32, align 4
  %19 = alloca [48 x i8], align 16
  %20 = alloca i32, align 4
  %21 = alloca i32, align 4
  store ptr %0, ptr %9, align 8, !tbaa !13
  store ptr %1, ptr %10, align 8, !tbaa !3
  store i64 %2, ptr %11, align 8, !tbaa !32
  store ptr %3, ptr %12, align 8, !tbaa !3
  store i64 %4, ptr %13, align 8, !tbaa !32
  store i32 %5, ptr %14, align 4, !tbaa !8
  store i32 %6, ptr %15, align 4, !tbaa !8
  call void @llvm.lifetime.start.p0(i64 4, ptr %16) #6
  call void @llvm.lifetime.start.p0(i64 4, ptr %17) #6
  call void @llvm.lifetime.start.p0(i64 4, ptr %18) #6
  call void @llvm.lifetime.start.p0(i64 48, ptr %19) #6
  %22 = load i64, ptr %13, align 8, !tbaa !32
  %23 = icmp ult i64 %22, 59
  br i1 %23, label %27, label %24

24:                                               ; preds = %7
  %25 = load i64, ptr %11, align 8, !tbaa !32
  %26 = icmp ult i64 %25, 48
  br i1 %26, label %27, label %28

27:                                               ; preds = %24, %7
  call void @ERR_new()
  call void @ERR_set_debug(ptr noundef @.str, i32 noundef 562, ptr noundef @__func__.ossl_rsa_padding_check_PKCS1_type_2_TLS)
  call void (i32, i32, ptr, ...) @ERR_set_error(i32 noundef 4, i32 noundef 159, ptr noundef null)
  store i32 -1, ptr %8, align 4
  store i32 1, ptr %20, align 4
  br label %162

28:                                               ; preds = %24
  %29 = load ptr, ptr %9, align 8, !tbaa !13
  %30 = getelementptr inbounds [48 x i8], ptr %19, i64 0, i64 0
  %31 = call i32 @RAND_priv_bytes_ex(ptr noundef %29, ptr noundef %30, i64 noundef 48, i32 noundef 0)
  %32 = icmp sle i32 %31, 0
  br i1 %32, label %33, label %34

33:                                               ; preds = %28
  call void @ERR_new()
  call void @ERR_set_debug(ptr noundef @.str, i32 noundef 572, ptr noundef @__func__.ossl_rsa_padding_check_PKCS1_type_2_TLS)
  call void (i32, i32, ptr, ...) @ERR_set_error(i32 noundef 4, i32 noundef 786691, ptr noundef null)
  store i32 -1, ptr %8, align 4
  store i32 1, ptr %20, align 4
  br label %162

34:                                               ; preds = %28
  %35 = load ptr, ptr %12, align 8, !tbaa !3
  %36 = getelementptr inbounds i8, ptr %35, i64 0
  %37 = load i8, ptr %36, align 1, !tbaa !10
  %38 = zext i8 %37 to i32
  %39 = call i32 @constant_time_is_zero(i32 noundef %38)
  store i32 %39, ptr %17, align 4, !tbaa !8
  %40 = load ptr, ptr %12, align 8, !tbaa !3
  %41 = getelementptr inbounds i8, ptr %40, i64 1
  %42 = load i8, ptr %41, align 1, !tbaa !10
  %43 = zext i8 %42 to i32
  %44 = call i32 @constant_time_eq(i32 noundef %43, i32 noundef 2)
  %45 = load i32, ptr %17, align 4, !tbaa !8
  %46 = and i32 %45, %44
  store i32 %46, ptr %17, align 4, !tbaa !8
  store i32 2, ptr %16, align 4, !tbaa !8
  br label %47

47:                                               ; preds = %66, %34
  %48 = load i32, ptr %16, align 4, !tbaa !8
  %49 = zext i32 %48 to i64
  %50 = load i64, ptr %13, align 8, !tbaa !32
  %51 = sub i64 %50, 48
  %52 = sub i64 %51, 1
  %53 = icmp ult i64 %49, %52
  br i1 %53, label %54, label %69

54:                                               ; preds = %47
  %55 = load ptr, ptr %12, align 8, !tbaa !3
  %56 = load i32, ptr %16, align 4, !tbaa !8
  %57 = zext i32 %56 to i64
  %58 = getelementptr inbounds nuw i8, ptr %55, i64 %57
  %59 = load i8, ptr %58, align 1, !tbaa !10
  %60 = zext i8 %59 to i32
  %61 = call zeroext i8 @constant_time_is_zero_8(i32 noundef %60)
  %62 = zext i8 %61 to i32
  %63 = xor i32 %62, -1
  %64 = load i32, ptr %17, align 4, !tbaa !8
  %65 = and i32 %64, %63
  store i32 %65, ptr %17, align 4, !tbaa !8
  br label %66

66:                                               ; preds = %54
  %67 = load i32, ptr %16, align 4, !tbaa !8
  %68 = add i32 %67, 1
  store i32 %68, ptr %16, align 4, !tbaa !8
  br label %47, !llvm.loop !34

69:                                               ; preds = %47
  %70 = load ptr, ptr %12, align 8, !tbaa !3
  %71 = load i64, ptr %13, align 8, !tbaa !32
  %72 = sub i64 %71, 48
  %73 = sub i64 %72, 1
  %74 = getelementptr inbounds nuw i8, ptr %70, i64 %73
  %75 = load i8, ptr %74, align 1, !tbaa !10
  %76 = zext i8 %75 to i32
  %77 = call zeroext i8 @constant_time_is_zero_8(i32 noundef %76)
  %78 = zext i8 %77 to i32
  %79 = load i32, ptr %17, align 4, !tbaa !8
  %80 = and i32 %79, %78
  store i32 %80, ptr %17, align 4, !tbaa !8
  %81 = load ptr, ptr %12, align 8, !tbaa !3
  %82 = load i64, ptr %13, align 8, !tbaa !32
  %83 = sub i64 %82, 48
  %84 = getelementptr inbounds nuw i8, ptr %81, i64 %83
  %85 = load i8, ptr %84, align 1, !tbaa !10
  %86 = zext i8 %85 to i32
  %87 = load i32, ptr %14, align 4, !tbaa !8
  %88 = ashr i32 %87, 8
  %89 = and i32 %88, 255
  %90 = call i32 @constant_time_eq(i32 noundef %86, i32 noundef %89)
  store i32 %90, ptr %18, align 4, !tbaa !8
  %91 = load ptr, ptr %12, align 8, !tbaa !3
  %92 = load i64, ptr %13, align 8, !tbaa !32
  %93 = sub i64 %92, 48
  %94 = add i64 %93, 1
  %95 = getelementptr inbounds nuw i8, ptr %91, i64 %94
  %96 = load i8, ptr %95, align 1, !tbaa !10
  %97 = zext i8 %96 to i32
  %98 = load i32, ptr %14, align 4, !tbaa !8
  %99 = and i32 %98, 255
  %100 = call i32 @constant_time_eq(i32 noundef %97, i32 noundef %99)
  %101 = load i32, ptr %18, align 4, !tbaa !8
  %102 = and i32 %101, %100
  store i32 %102, ptr %18, align 4, !tbaa !8
  %103 = load i32, ptr %15, align 4, !tbaa !8
  %104 = icmp sgt i32 %103, 0
  br i1 %104, label %105, label %131

105:                                              ; preds = %69
  call void @llvm.lifetime.start.p0(i64 4, ptr %21) #6
  %106 = load ptr, ptr %12, align 8, !tbaa !3
  %107 = load i64, ptr %13, align 8, !tbaa !32
  %108 = sub i64 %107, 48
  %109 = getelementptr inbounds nuw i8, ptr %106, i64 %108
  %110 = load i8, ptr %109, align 1, !tbaa !10
  %111 = zext i8 %110 to i32
  %112 = load i32, ptr %15, align 4, !tbaa !8
  %113 = ashr i32 %112, 8
  %114 = and i32 %113, 255
  %115 = call i32 @constant_time_eq(i32 noundef %111, i32 noundef %114)
  store i32 %115, ptr %21, align 4, !tbaa !8
  %116 = load ptr, ptr %12, align 8, !tbaa !3
  %117 = load i64, ptr %13, align 8, !tbaa !32
  %118 = sub i64 %117, 48
  %119 = add i64 %118, 1
  %120 = getelementptr inbounds nuw i8, ptr %116, i64 %119
  %121 = load i8, ptr %120, align 1, !tbaa !10
  %122 = zext i8 %121 to i32
  %123 = load i32, ptr %15, align 4, !tbaa !8
  %124 = and i32 %123, 255
  %125 = call i32 @constant_time_eq(i32 noundef %122, i32 noundef %124)
  %126 = load i32, ptr %21, align 4, !tbaa !8
  %127 = and i32 %126, %125
  store i32 %127, ptr %21, align 4, !tbaa !8
  %128 = load i32, ptr %21, align 4, !tbaa !8
  %129 = load i32, ptr %18, align 4, !tbaa !8
  %130 = or i32 %129, %128
  store i32 %130, ptr %18, align 4, !tbaa !8
  call void @llvm.lifetime.end.p0(i64 4, ptr %21) #6
  br label %131

131:                                              ; preds = %105, %69
  %132 = load i32, ptr %18, align 4, !tbaa !8
  %133 = load i32, ptr %17, align 4, !tbaa !8
  %134 = and i32 %133, %132
  store i32 %134, ptr %17, align 4, !tbaa !8
  store i32 0, ptr %16, align 4, !tbaa !8
  br label %135

135:                                              ; preds = %158, %131
  %136 = load i32, ptr %16, align 4, !tbaa !8
  %137 = icmp ult i32 %136, 48
  br i1 %137, label %138, label %161

138:                                              ; preds = %135
  %139 = load i32, ptr %17, align 4, !tbaa !8
  %140 = trunc i32 %139 to i8
  %141 = load ptr, ptr %12, align 8, !tbaa !3
  %142 = load i64, ptr %13, align 8, !tbaa !32
  %143 = sub i64 %142, 48
  %144 = load i32, ptr %16, align 4, !tbaa !8
  %145 = zext i32 %144 to i64
  %146 = add i64 %143, %145
  %147 = getelementptr inbounds nuw i8, ptr %141, i64 %146
  %148 = load i8, ptr %147, align 1, !tbaa !10
  %149 = load i32, ptr %16, align 4, !tbaa !8
  %150 = zext i32 %149 to i64
  %151 = getelementptr inbounds nuw [48 x i8], ptr %19, i64 0, i64 %150
  %152 = load i8, ptr %151, align 1, !tbaa !10
  %153 = call zeroext i8 @constant_time_select_8(i8 noundef zeroext %140, i8 noundef zeroext %148, i8 noundef zeroext %152)
  %154 = load ptr, ptr %10, align 8, !tbaa !3
  %155 = load i32, ptr %16, align 4, !tbaa !8
  %156 = zext i32 %155 to i64
  %157 = getelementptr inbounds nuw i8, ptr %154, i64 %156
  store i8 %153, ptr %157, align 1, !tbaa !10
  br label %158

158:                                              ; preds = %138
  %159 = load i32, ptr %16, align 4, !tbaa !8
  %160 = add i32 %159, 1
  store i32 %160, ptr %16, align 4, !tbaa !8
  br label %135, !llvm.loop !35

161:                                              ; preds = %135
  store i32 48, ptr %8, align 4
  store i32 1, ptr %20, align 4
  br label %162

162:                                              ; preds = %161, %33, %27
  call void @llvm.lifetime.end.p0(i64 48, ptr %19) #6
  call void @llvm.lifetime.end.p0(i64 4, ptr %18) #6
  call void @llvm.lifetime.end.p0(i64 4, ptr %17) #6
  call void @llvm.lifetime.end.p0(i64 4, ptr %16) #6
  %163 = load i32, ptr %8, align 4
  ret i32 %163
}