; Function Attrs: nounwind uwtable
define range(i32 -1, 49) i32 @ossl_rsa_padding_check_PKCS1_type_2_TLS(ptr noundef %0, ptr noundef writeonly captures(none) %1, i64 noundef %2, ptr noundef readonly captures(none) %3, i64 noundef %4, i32 noundef %5, i32 noundef %6) local_unnamed_addr #0 {
  %8 = alloca [48 x i8], align 16
  call void @llvm.lifetime.start.p0(i64 48, ptr nonnull %8) #5
  %9 = icmp ult i64 %4, 59
  %10 = icmp ult i64 %2, 48
  %or.cond = or i1 %10, %9
  br i1 %or.cond, label %11, label %12

11:                                               ; preds = %7
  tail call void @ERR_new() #5
  tail call void @ERR_set_debug(ptr noundef nonnull @.str, i32 noundef 562, ptr noundef nonnull @__func__.ossl_rsa_padding_check_PKCS1_type_2_TLS) #5
  tail call void (i32, i32, ptr, ...) @ERR_set_error(i32 noundef 4, i32 noundef 159, ptr noundef null) #5
  br label %.loopexit

12:                                               ; preds = %7
  %13 = call i32 @RAND_priv_bytes_ex(ptr noundef %0, ptr noundef nonnull %8, i64 noundef 48, i32 noundef 0) #5
  %14 = icmp slt i32 %13, 1
  br i1 %14, label %15, label %.lr.ph.preheader

15:                                               ; preds = %12
  call void @ERR_new() #5
  call void @ERR_set_debug(ptr noundef nonnull @.str, i32 noundef 572, ptr noundef nonnull @__func__.ossl_rsa_padding_check_PKCS1_type_2_TLS) #5
  call void (i32, i32, ptr, ...) @ERR_set_error(i32 noundef 4, i32 noundef 786691, ptr noundef null) #5
  br label %.loopexit

.lr.ph.preheader:                                 ; preds = %12
  %16 = load i8, ptr %3, align 1, !tbaa !3
  %17 = icmp eq i8 %16, 0
  %18 = getelementptr inbounds nuw i8, ptr %3, i64 1
  %19 = load i8, ptr %18, align 1, !tbaa !3
  %20 = icmp eq i8 %19, 2
  %21 = and i1 %17, %20
  %22 = sext i1 %21 to i32
  %23 = add i64 %4, -49
  br label %.lr.ph

.lr.ph:                                           ; preds = %.lr.ph.preheader, %.lr.ph
  %24 = phi i64 [ %31, %.lr.ph ], [ 2, %.lr.ph.preheader ]
  %.04556 = phi i32 [ %29, %.lr.ph ], [ %22, %.lr.ph.preheader ]
  %.04655 = phi i32 [ %30, %.lr.ph ], [ 2, %.lr.ph.preheader ]
  %25 = getelementptr inbounds nuw i8, ptr %3, i64 %24
  %26 = load i8, ptr %25, align 1, !tbaa !3
  %27 = icmp eq i8 %26, 0
  %28 = select i1 %27, i32 -256, i32 -1
  %29 = and i32 %28, %.04556
  %30 = add i32 %.04655, 1
  %31 = zext i32 %30 to i64
  %32 = icmp ugt i64 %23, %31
  br i1 %32, label %.lr.ph, label %._crit_edge, !llvm.loop !22

._crit_edge:                                      ; preds = %.lr.ph
  %33 = getelementptr inbounds nuw i8, ptr %3, i64 %23
  %34 = load i8, ptr %33, align 1, !tbaa !3
  %35 = icmp eq i8 %34, 0
  %36 = getelementptr i8, ptr %3, i64 %4
  %37 = getelementptr i8, ptr %36, i64 -48
  %38 = load i8, ptr %37, align 1, !tbaa !3
  %39 = lshr i32 %5, 8
  %40 = trunc i32 %39 to i8
  %41 = icmp eq i8 %38, %40
  %42 = getelementptr i8, ptr %36, i64 -47
  %43 = load i8, ptr %42, align 1, !tbaa !3
  %44 = trunc i32 %5 to i8
  %45 = icmp eq i8 %43, %44
  %46 = and i1 %41, %45
  %47 = icmp sgt i32 %6, 0
  br i1 %47, label %48, label %56

48:                                               ; preds = %._crit_edge
  %49 = lshr i32 %6, 8
  %50 = trunc i32 %49 to i8
  %51 = icmp eq i8 %38, %50
  %52 = trunc i32 %6 to i8
  %53 = icmp eq i8 %43, %52
  %54 = and i1 %51, %53
  %55 = or i1 %46, %54
  br label %56

56:                                               ; preds = %48, %._crit_edge
  %.044.in = phi i1 [ %55, %48 ], [ %46, %._crit_edge ]
  %57 = select i1 %.044.in, i1 %35, i1 false
  %58 = select i1 %57, i32 255, i32 0
  %59 = and i32 %58, %29
  %60 = call i32 asm "", "=r,0,~{dirflag},~{fpsr},~{flags}"(i32 %59) #6, !srcloc !11
  %61 = xor i32 %59, -1
  %62 = call i32 asm "", "=r,0,~{dirflag},~{fpsr},~{flags}"(i32 %61) #6, !srcloc !11
  br label %63

63:                                               ; preds = %56, %63
  %indvars.iv = phi i64 [ 0, %56 ], [ %indvars.iv.next, %63 ]
  %64 = getelementptr i8, ptr %37, i64 %indvars.iv
  %65 = load i8, ptr %64, align 1, !tbaa !3
  %66 = getelementptr inbounds nuw [48 x i8], ptr %8, i64 0, i64 %indvars.iv
  %67 = load i8, ptr %66, align 1, !tbaa !3
  %68 = zext i8 %65 to i32
  %69 = zext i8 %67 to i32
  %70 = and i32 %60, %68
  %71 = and i32 %62, %69
  %72 = or i32 %71, %70
  %73 = trunc nuw i32 %72 to i8
  %74 = getelementptr inbounds nuw i8, ptr %1, i64 %indvars.iv
  store i8 %73, ptr %74, align 1, !tbaa !3
  %indvars.iv.next = add nuw nsw i64 %indvars.iv, 1
  %exitcond.not = icmp eq i64 %indvars.iv.next, 48
  br i1 %exitcond.not, label %.loopexit, label %63, !llvm.loop !23

.loopexit:                                        ; preds = %63, %15, %11
  %.0 = phi i32 [ -1, %11 ], [ -1, %15 ], [ 48, %63 ]
  call void @llvm.lifetime.end.p0(i64 48, ptr nonnull %8) #5
  ret i32 %.0
}